target datalayout = "e-m:e-p270:32:32-p271:32:32-p272:64:64-i64:64-i128:128-f80:128-n8:16:32:64-S128"
target triple = "x86_64-pc-linux-gnu"

%struct._ir_ctx = type { ptr, i32, i32, i32, i32, i32, i32, i32, i32, i32, i32, %struct._ir_insn, ptr, ptr, ptr, i32, i32, i32, ptr, ptr, ptr, ptr, ptr, i32, i32, i64, i32, i32, i32, i64, i32, i32, i32, i32, ptr, ptr, ptr, ptr, ptr, ptr, %union.anon.13, ptr, i32, i32, i32, i64, i32, i32, i32, ptr, ptr, ptr, ptr, %struct._ir_strtab, [61 x i32], [14 x i32] }
%struct._ir_insn = type { %struct.anon, %union.anon.5 }
%struct.anon = type { %union.anon, %union.anon.4 }
%union.anon = type { i32 }
%union.anon.4 = type { i32 }
%union.anon.5 = type { %union._ir_val }
%union._ir_val = type { double }
%union.anon.13 = type { ptr }
%struct._ir_strtab = type { ptr, i32, i32, i32, i32, ptr, i32, i32 }
%struct.anon.0 = type { %union.anon.1, %union.anon.3 }
%union.anon.1 = type { i16 }
%union.anon.3 = type { i16 }
%struct.anon.2 = type { i8, i8 }
%struct._ir_live_interval = type { i8, i8, i16, %union.anon.17, %union.anon.18, i32, %struct._ir_live_range, ptr, ptr, ptr, ptr }
%union.anon.17 = type { i32 }
%union.anon.18 = type { i32 }
%struct._ir_live_range = type { i32, i32, ptr }
%struct._ir_use_pos = type { i16, i8, i8, i32, i32, ptr }

; Function Attrs: nounwind uwtable
define internal void @ir_vregs_join(ptr noundef %0, i32 noundef %1, i32 noundef %2) #0 {
  %4 = alloca ptr, align 8
  %5 = alloca i32, align 4
  %6 = alloca i32, align 4
  %7 = alloca ptr, align 8
  %8 = alloca ptr, align 8
  %9 = alloca ptr, align 8
  %10 = alloca ptr, align 8
  %11 = alloca ptr, align 8
  %12 = alloca ptr, align 8
  store ptr %0, ptr %4, align 8
  store i32 %1, ptr %5, align 4
  store i32 %2, ptr %6, align 4
  %13 = load ptr, ptr %4, align 8
  %14 = getelementptr inbounds %struct._ir_ctx, ptr %13, i32 0, i32 34
  %15 = load ptr, ptr %14, align 8
  %16 = load i32, ptr %6, align 4
  %17 = zext i32 %16 to i64
  %18 = getelementptr inbounds ptr, ptr %15, i64 %17
  %19 = load ptr, ptr %18, align 8
  store ptr %19, ptr %7, align 8
  %20 = load ptr, ptr %7, align 8
  %21 = getelementptr inbounds %struct._ir_live_interval, ptr %20, i32 0, i32 6
  store ptr %21, ptr %8, align 8
  %22 = load ptr, ptr %4, align 8
  %23 = load i32, ptr %5, align 4
  %24 = load ptr, ptr %8, align 8
  %25 = getelementptr inbounds %struct._ir_live_range, ptr %24, i32 0, i32 0
  %26 = load i32, ptr %25, align 8
  %27 = load ptr, ptr %8, align 8
  %28 = getelementptr inbounds %struct._ir_live_range, ptr %27, i32 0, i32 1
  %29 = load i32, ptr %28, align 4
  %30 = call ptr @ir_add_live_range(ptr noundef %22, i32 noundef %23, i32 noundef %26, i32 noundef %29)
  %31 = load ptr, ptr %8, align 8
  %32 = getelementptr inbounds %struct._ir_live_range, ptr %31, i32 0, i32 2
  %33 = load ptr, ptr %32, align 8
  store ptr %33, ptr %8, align 8
  br label %34

34:                                               ; preds = %37, %3
  %35 = load ptr, ptr %8, align 8
  %36 = icmp ne ptr %35, null
  br i1 %36, label %37, label %59

37:                                               ; preds = %34
  %38 = load ptr, ptr %8, align 8
  %39 = getelementptr inbounds %struct._ir_live_range, ptr %38, i32 0, i32 2
  %40 = load ptr, ptr %39, align 8
  store ptr %40, ptr %9, align 8
  %41 = load ptr, ptr %4, align 8
  %42 = getelementptr inbounds %struct._ir_ctx, ptr %41, i32 0, i32 36
  %43 = load ptr, ptr %42, align 8
  %44 = load ptr, ptr %8, align 8
  %45 = getelementptr inbounds %struct._ir_live_range, ptr %44, i32 0, i32 2
  store ptr %43, ptr %45, align 8
  %46 = load ptr, ptr %8, align 8
  %47 = load ptr, ptr %4, align 8
  %48 = getelementptr inbounds %struct._ir_ctx, ptr %47, i32 0, i32 36
  store ptr %46, ptr %48, align 8
  %49 = load ptr, ptr %4, align 8
  %50 = load i32, ptr %5, align 4
  %51 = load ptr, ptr %8, align 8
  %52 = getelementptr inbounds %struct._ir_live_range, ptr %51, i32 0, i32 0
  %53 = load i32, ptr %52, align 8
  %54 = load ptr, ptr %8, align 8
  %55 = getelementptr inbounds %struct._ir_live_range, ptr %54, i32 0, i32 1
  %56 = load i32, ptr %55, align 4
  %57 = call ptr @ir_add_live_range(ptr noundef %49, i32 noundef %50, i32 noundef %53, i32 noundef %56)
  %58 = load ptr, ptr %9, align 8
  store ptr %58, ptr %8, align 8
  br label %34

59:                                               ; preds = %34
  %60 = load ptr, ptr %4, align 8
  %61 = getelementptr inbounds %struct._ir_ctx, ptr %60, i32 0, i32 34
  %62 = load ptr, ptr %61, align 8
  %63 = load i32, ptr %5, align 4
  %64 = zext i32 %63 to i64
  %65 = getelementptr inbounds ptr, ptr %62, i64 %64
  %66 = load ptr, ptr %65, align 8
  %67 = getelementptr inbounds %struct._ir_live_interval, ptr %66, i32 0, i32 8
  store ptr %67, ptr %12, align 8
  %68 = load ptr, ptr %7, align 8
  %69 = getelementptr inbounds %struct._ir_live_interval, ptr %68, i32 0, i32 8
  %70 = load ptr, ptr %69, align 8
  store ptr %70, ptr %10, align 8
  br label %71

71:                                               ; preds = %169, %59
  %72 = load ptr, ptr %10, align 8
  %73 = icmp ne ptr %72, null
  br i1 %73, label %74, label %182

74:                                               ; preds = %71
  %75 = load ptr, ptr %10, align 8
  %76 = getelementptr inbounds %struct._ir_use_pos, ptr %75, i32 0, i32 3
  %77 = load i32, ptr %76, align 4
  %78 = icmp sgt i32 %77, 0
  br i1 %78, label %79, label %94

79:                                               ; preds = %74
  %80 = load ptr, ptr %4, align 8
  %81 = getelementptr inbounds %struct._ir_ctx, ptr %80, i32 0, i32 22
  %82 = load ptr, ptr %81, align 8
  %83 = load ptr, ptr %10, align 8
  %84 = getelementptr inbounds %struct._ir_use_pos, ptr %83, i32 0, i32 3
  %85 = load i32, ptr %84, align 4
  %86 = sext i32 %85 to i64
  %87 = getelementptr inbounds i32, ptr %82, i64 %86
  %88 = load i32, ptr %87, align 4
  %89 = load i32, ptr %5, align 4
  %90 = icmp eq i32 %88, %89
  br i1 %90, label %91, label %94

91:                                               ; preds = %79
  %92 = load ptr, ptr %10, align 8
  %93 = getelementptr inbounds %struct._ir_use_pos, ptr %92, i32 0, i32 3
  store i32 0, ptr %93, align 4
  br label %94

94:                                               ; preds = %91, %79, %74
  br label %95

95:                                               ; preds = %165, %94
  %96 = load ptr, ptr %12, align 8
  %97 = load ptr, ptr %96, align 8
  %98 = icmp ne ptr %97, null
  br i1 %98, label %99, label %140

99:                                               ; preds = %95
  %100 = load ptr, ptr %12, align 8
  %101 = load ptr, ptr %100, align 8
  %102 = getelementptr inbounds %struct._ir_use_pos, ptr %101, i32 0, i32 4
  %103 = load i32, ptr %102, align 8
  %104 = load ptr, ptr %10, align 8
  %105 = getelementptr inbounds %struct._ir_use_pos, ptr %104, i32 0, i32 4
  %106 = load i32, ptr %105, align 8
  %107 = icmp slt i32 %103, %106
  br i1 %107, label %138, label %108

108:                                              ; preds = %99
  %109 = load ptr, ptr %12, align 8
  %110 = load ptr, ptr %109, align 8
  %111 = getelementptr inbounds %struct._ir_use_pos, ptr %110, i32 0, i32 4
  %112 = load i32, ptr %111, align 8
  %113 = load ptr, ptr %10, align 8
  %114 = getelementptr inbounds %struct._ir_use_pos, ptr %113, i32 0, i32 4
  %115 = load i32, ptr %114, align 8
  %116 = icmp eq i32 %112, %115
  br i1 %116, label %117, label %136

117:                                              ; preds = %108
  %118 = load ptr, ptr %10, align 8
  %119 = getelementptr inbounds %struct._ir_use_pos, ptr %118, i32 0, i32 0
  %120 = load i16, ptr %119, align 8
  %121 = zext i16 %120 to i32
  %122 = icmp eq i32 %121, 0
  br i1 %122, label %134, label %123

123:                                              ; preds = %117
  %124 = load ptr, ptr %12, align 8
  %125 = load ptr, ptr %124, align 8
  %126 = getelementptr inbounds %struct._ir_use_pos, ptr %125, i32 0, i32 0
  %127 = load i16, ptr %126, align 8
  %128 = zext i16 %127 to i32
  %129 = load ptr, ptr %10, align 8
  %130 = getelementptr inbounds %struct._ir_use_pos, ptr %129, i32 0, i32 0
  %131 = load i16, ptr %130, align 8
  %132 = zext i16 %131 to i32
  %133 = icmp slt i32 %128, %132
  br label %134

134:                                              ; preds = %123, %117
  %135 = phi i1 [ true, %117 ], [ %133, %123 ]
  br label %136

136:                                              ; preds = %134, %108
  %137 = phi i1 [ false, %108 ], [ %135, %134 ]
  br label %138

138:                                              ; preds = %136, %99
  %139 = phi i1 [ true, %99 ], [ %137, %136 ]
  br label %140

140:                                              ; preds = %138, %95
  %141 = phi i1 [ false, %95 ], [ %139, %138 ]
  br i1 %141, label %142, label %169

142:                                              ; preds = %140
  %143 = load ptr, ptr %12, align 8
  %144 = load ptr, ptr %143, align 8
  %145 = getelementptr inbounds %struct._ir_use_pos, ptr %144, i32 0, i32 3
  %146 = load i32, ptr %145, align 4
  %147 = icmp sgt i32 %146, 0
  br i1 %147, label %148, label %165

148:                                              ; preds = %142
  %149 = load ptr, ptr %4, align 8
  %150 = getelementptr inbounds %struct._ir_ctx, ptr %149, i32 0, i32 22
  %151 = load ptr, ptr %150, align 8
  %152 = load ptr, ptr %12, align 8
  %153 = load ptr, ptr %152, align 8
  %154 = getelementptr inbounds %struct._ir_use_pos, ptr %153, i32 0, i32 3
  %155 = load i32, ptr %154, align 4
  %156 = sext i32 %155 to i64
  %157 = getelementptr inbounds i32, ptr %151, i64 %156
  %158 = load i32, ptr %157, align 4
  %159 = load i32, ptr %6, align 4
  %160 = icmp eq i32 %158, %159
  br i1 %160, label %161, label %165

161:                                              ; preds = %148
  %162 = load ptr, ptr %12, align 8
  %163 = load ptr, ptr %162, align 8
  %164 = getelementptr inbounds %struct._ir_use_pos, ptr %163, i32 0, i32 3
  store i32 0, ptr %164, align 4
  br label %165

165:                                              ; preds = %161, %148, %142
  %166 = load ptr, ptr %12, align 8
  %167 = load ptr, ptr %166, align 8
  %168 = getelementptr inbounds %struct._ir_use_pos, ptr %167, i32 0, i32 5
  store ptr %168, ptr %12, align 8
  br label %95

169:                                              ; preds = %140
  %170 = load ptr, ptr %10, align 8
  %171 = getelementptr inbounds %struct._ir_use_pos, ptr %170, i32 0, i32 5
  %172 = load ptr, ptr %171, align 8
  store ptr %172, ptr %11, align 8
  %173 = load ptr, ptr %12, align 8
  %174 = load ptr, ptr %173, align 8
  %175 = load ptr, ptr %10, align 8
  %176 = getelementptr inbounds %struct._ir_use_pos, ptr %175, i32 0, i32 5
  store ptr %174, ptr %176, align 8
  %177 = load ptr, ptr %10, align 8
  %178 = load ptr, ptr %12, align 8
  store ptr %177, ptr %178, align 8
  %179 = load ptr, ptr %10, align 8
  %180 = getelementptr inbounds %struct._ir_use_pos, ptr %179, i32 0, i32 5
  store ptr %180, ptr %12, align 8
  %181 = load ptr, ptr %11, align 8
  store ptr %181, ptr %10, align 8
  br label %71

182:                                              ; preds = %71
  %183 = load ptr, ptr %12, align 8
  %184 = load ptr, ptr %183, align 8
  store ptr %184, ptr %10, align 8
  br label %185

185:                                              ; preds = %208, %182
  %186 = load ptr, ptr %10, align 8
  %187 = icmp ne ptr %186, null
  br i1 %187, label %188, label %212

188:                                              ; preds = %185
  %189 = load ptr, ptr %10, align 8
  %190 = getelementptr inbounds %struct._ir_use_pos, ptr %189, i32 0, i32 3
  %191 = load i32, ptr %190, align 4
  %192 = icmp sgt i32 %191, 0
  br i1 %192, label %193, label %208

193:                                              ; preds = %188
  %194 = load ptr, ptr %4, align 8
  %195 = getelementptr inbounds %struct._ir_ctx, ptr %194, i32 0, i32 22
  %196 = load ptr, ptr %195, align 8
  %197 = load ptr, ptr %10, align 8
  %198 = getelementptr inbounds %struct._ir_use_pos, ptr %197, i32 0, i32 3
  %199 = load i32, ptr %198, align 4
  %200 = sext i32 %199 to i64
  %201 = getelementptr inbounds i32, ptr %196, i64 %200
  %202 = load i32, ptr %201, align 4
  %203 = load i32, ptr %6, align 4
  %204 = icmp eq i32 %202, %203
  br i1 %204, label %205, label %208

205:                                              ; preds = %193
  %206 = load ptr, ptr %10, align 8
  %207 = getelementptr inbounds %struct._ir_use_pos, ptr %206, i32 0, i32 3
  store i32 0, ptr %207, align 4
  br label %208

208:                                              ; preds = %205, %193, %188
  %209 = load ptr, ptr %10, align 8
  %210 = getelementptr inbounds %struct._ir_use_pos, ptr %209, i32 0, i32 5
  %211 = load ptr, ptr %210, align 8
  store ptr %211, ptr %10, align 8
  br label %185

212:                                              ; preds = %185
  %213 = load ptr, ptr %7, align 8
  %214 = getelementptr inbounds %struct._ir_live_interval, ptr %213, i32 0, i32 2
  %215 = load i16, ptr %214, align 2
  %216 = zext i16 %215 to i32
  %217 = and i32 %216, 12
  %218 = or i32 64, %217
  %219 = load ptr, ptr %4, align 8
  %220 = getelementptr inbounds %struct._ir_ctx, ptr %219, i32 0, i32 34
  %221 = load ptr, ptr %220, align 8
  %222 = load i32, ptr %5, align 4
  %223 = zext i32 %222 to i64
  %224 = getelementptr inbounds ptr, ptr %221, i64 %223
  %225 = load ptr, ptr %224, align 8
  %226 = getelementptr inbounds %struct._ir_live_interval, ptr %225, i32 0, i32 2
  %227 = load i16, ptr %226, align 2
  %228 = zext i16 %227 to i32
  %229 = or i32 %228, %218
  %230 = trunc i32 %229 to i16
  store i16 %230, ptr %226, align 2
  %231 = load ptr, ptr %4, align 8
  %232 = getelementptr inbounds %struct._ir_ctx, ptr %231, i32 0, i32 0
  %233 = load ptr, ptr %232, align 8
  %234 = load ptr, ptr %4, align 8
  %235 = getelementptr inbounds %struct._ir_ctx, ptr %234, i32 0, i32 34
  %236 = load ptr, ptr %235, align 8
  %237 = load i32, ptr %5, align 4
  %238 = zext i32 %237 to i64
  %239 = getelementptr inbounds ptr, ptr %236, i64 %238
  %240 = load ptr, ptr %239, align 8
  %241 = getelementptr inbounds %struct._ir_live_interval, ptr %240, i32 0, i32 8
  %242 = load ptr, ptr %241, align 8
  %243 = getelementptr inbounds %struct._ir_use_pos, ptr %242, i32 0, i32 4
  %244 = load i32, ptr %243, align 8
  %245 = sdiv i32 %244, 4
  %246 = sext i32 %245 to i64
  %247 = getelementptr inbounds %struct._ir_insn, ptr %233, i64 %246
  %248 = getelementptr inbounds %struct._ir_insn, ptr %247, i32 0, i32 0
  %249 = getelementptr inbounds %struct.anon, ptr %248, i32 0, i32 0
  %250 = getelementptr inbounds %struct.anon.0, ptr %249, i32 0, i32 0
  %251 = getelementptr inbounds %struct.anon.2, ptr %250, i32 0, i32 0
  %252 = load i8, ptr %251, align 8
  %253 = zext i8 %252 to i32
  %254 = icmp ne i32 %253, 74
  br i1 %254, label %255, label %268

255:                                              ; preds = %212
  %256 = load ptr, ptr %4, align 8
  %257 = getelementptr inbounds %struct._ir_ctx, ptr %256, i32 0, i32 34
  %258 = load ptr, ptr %257, align 8
  %259 = load i32, ptr %5, align 4
  %260 = zext i32 %259 to i64
  %261 = getelementptr inbounds ptr, ptr %258, i64 %260
  %262 = load ptr, ptr %261, align 8
  %263 = getelementptr inbounds %struct._ir_live_interval, ptr %262, i32 0, i32 2
  %264 = load i16, ptr %263, align 2
  %265 = zext i16 %264 to i32
  %266 = and i32 %265, -33
  %267 = trunc i32 %266 to i16
  store i16 %267, ptr %263, align 2
  br label %268

268:                                              ; preds = %255, %212
  %269 = load ptr, ptr %4, align 8
  %270 = getelementptr inbounds %struct._ir_ctx, ptr %269, i32 0, i32 34
  %271 = load ptr, ptr %270, align 8
  %272 = load i32, ptr %6, align 4
  %273 = zext i32 %272 to i64
  %274 = getelementptr inbounds ptr, ptr %271, i64 %273
  store ptr null, ptr %274, align 8
  ret void
}