; Function Attrs: nounwind uwtable
define internal fastcc void @ir_vregs_join(ptr nocapture noundef %0, i32 noundef %1, i32 noundef %2) unnamed_addr #1 {
  %4 = getelementptr inbounds i8, ptr %0, i64 200
  %5 = load ptr, ptr %4, align 8
  %6 = zext i32 %2 to i64
  %7 = getelementptr inbounds ptr, ptr %5, i64 %6
  %8 = load ptr, ptr %7, align 8
  %9 = getelementptr inbounds i8, ptr %8, i64 16
  %10 = load i32, ptr %9, align 8
  %11 = getelementptr inbounds i8, ptr %8, i64 20
  %12 = load i32, ptr %11, align 4
  %13 = tail call fastcc ptr @ir_add_live_range(ptr noundef %0, i32 noundef %1, i32 noundef %10, i32 noundef %12)
  %14 = getelementptr inbounds i8, ptr %8, i64 24
  %15 = load ptr, ptr %14, align 8
  %.not82 = icmp eq ptr %15, null
  br i1 %.not82, label %._crit_edge, label %.lr.ph

.lr.ph:                                           ; preds = %3
  %16 = getelementptr inbounds i8, ptr %0, i64 216
  br label %17

17:                                               ; preds = %.lr.ph, %17
  %.06883 = phi ptr [ %15, %.lr.ph ], [ %19, %17 ]
  %18 = getelementptr inbounds i8, ptr %.06883, i64 8
  %19 = load ptr, ptr %18, align 8
  %20 = load ptr, ptr %16, align 8
  store ptr %20, ptr %18, align 8
  store ptr %.06883, ptr %16, align 8
  %21 = load i32, ptr %.06883, align 8
  %22 = getelementptr inbounds i8, ptr %.06883, i64 4
  %23 = load i32, ptr %22, align 4
  %24 = tail call fastcc ptr @ir_add_live_range(ptr noundef nonnull %0, i32 noundef %1, i32 noundef %21, i32 noundef %23)
  %.not = icmp eq ptr %19, null
  br i1 %.not, label %._crit_edge, label %17

._crit_edge:                                      ; preds = %17, %3
  %25 = load ptr, ptr %4, align 8
  %26 = zext i32 %1 to i64
  %27 = getelementptr inbounds ptr, ptr %25, i64 %26
  %28 = load ptr, ptr %27, align 8
  %29 = getelementptr inbounds i8, ptr %28, i64 40
  %30 = getelementptr inbounds i8, ptr %8, i64 40
  %31 = load ptr, ptr %30, align 8
  %.not7895 = icmp eq ptr %31, null
  br i1 %.not7895, label %.preheader, label %.lr.ph99

.lr.ph99:                                         ; preds = %._crit_edge
  %32 = getelementptr inbounds i8, ptr %0, i64 136
  br label %34

.preheader:                                       ; preds = %.critedge, %._crit_edge
  %.0.lcssa = phi ptr [ %29, %._crit_edge ], [ %76, %.critedge ]
  %.170101 = load ptr, ptr %.0.lcssa, align 8
  %.not79102 = icmp eq ptr %.170101, null
  br i1 %.not79102, label %._crit_edge105, label %.lr.ph104

.lr.ph104:                                        ; preds = %.preheader
  %33 = getelementptr inbounds i8, ptr %0, i64 136
  br label %78

34:                                               ; preds = %.lr.ph99, %.critedge
  %.097 = phi ptr [ %29, %.lr.ph99 ], [ %76, %.critedge ]
  %.06996 = phi ptr [ %31, %.lr.ph99 ], [ %77, %.critedge ]
  %35 = getelementptr inbounds i8, ptr %.06996, i64 4
  %36 = load i32, ptr %35, align 4
  %37 = icmp sgt i32 %36, 0
  br i1 %37, label %38, label %45

38:                                               ; preds = %34
  %39 = load ptr, ptr %32, align 8
  %40 = zext nneg i32 %36 to i64
  %41 = getelementptr inbounds i32, ptr %39, i64 %40
  %42 = load i32, ptr %41, align 4
  %43 = icmp eq i32 %42, %1
  br i1 %43, label %44, label %45

44:                                               ; preds = %38
  store i32 0, ptr %35, align 4
  br label %45

45:                                               ; preds = %44, %38, %34
  %46 = load ptr, ptr %.097, align 8
  %.not8184 = icmp eq ptr %46, null
  br i1 %.not8184, label %.critedge, label %.lr.ph87

.lr.ph87:                                         ; preds = %45
  %47 = getelementptr inbounds i8, ptr %.06996, i64 8
  br label %48

48:                                               ; preds = %.lr.ph87, %72
  %49 = phi ptr [ %46, %.lr.ph87 ], [ %75, %72 ]
  %.185 = phi ptr [ %.097, %.lr.ph87 ], [ %74, %72 ]
  %50 = getelementptr inbounds i8, ptr %49, i64 8
  %51 = load i32, ptr %50, align 8
  %52 = load i32, ptr %47, align 8
  %53 = icmp slt i32 %51, %52
  br i1 %53, label %.critedge2, label %54

54:                                               ; preds = %48
  %55 = icmp eq i32 %51, %52
  br i1 %55, label %56, label %.critedge

56:                                               ; preds = %54
  %57 = load i16, ptr %.06996, align 8
  %58 = icmp eq i16 %57, 0
  br i1 %58, label %.critedge2, label %59

59:                                               ; preds = %56
  %60 = load i16, ptr %49, align 8
  %61 = icmp ult i16 %60, %57
  br i1 %61, label %.critedge2, label %.critedge

.critedge2:                                       ; preds = %48, %56, %59
  %62 = getelementptr inbounds i8, ptr %49, i64 4
  %63 = load i32, ptr %62, align 4
  %64 = icmp sgt i32 %63, 0
  br i1 %64, label %65, label %72

65:                                               ; preds = %.critedge2
  %66 = load ptr, ptr %32, align 8
  %67 = zext nneg i32 %63 to i64
  %68 = getelementptr inbounds i32, ptr %66, i64 %67
  %69 = load i32, ptr %68, align 4
  %70 = icmp eq i32 %69, %2
  br i1 %70, label %71, label %72

71:                                               ; preds = %65
  store i32 0, ptr %62, align 4
  %.pre = load ptr, ptr %.185, align 8
  br label %72

72:                                               ; preds = %71, %65, %.critedge2
  %73 = phi ptr [ %.pre, %71 ], [ %49, %65 ], [ %49, %.critedge2 ]
  %74 = getelementptr inbounds i8, ptr %73, i64 16
  %75 = load ptr, ptr %74, align 8
  %.not81 = icmp eq ptr %75, null
  br i1 %.not81, label %.critedge, label %48

.critedge:                                        ; preds = %59, %54, %72, %45
  %.1.lcssa = phi ptr [ %.097, %45 ], [ %74, %72 ], [ %.185, %54 ], [ %.185, %59 ]
  %.lcssa = phi ptr [ null, %45 ], [ null, %72 ], [ %49, %54 ], [ %49, %59 ]
  %76 = getelementptr inbounds i8, ptr %.06996, i64 16
  %77 = load ptr, ptr %76, align 8
  store ptr %.lcssa, ptr %76, align 8
  store ptr %.06996, ptr %.1.lcssa, align 8
  %.not78 = icmp eq ptr %77, null
  br i1 %.not78, label %.preheader, label %34

78:                                               ; preds = %.lr.ph104, %89
  %.170103 = phi ptr [ %.170101, %.lr.ph104 ], [ %.170, %89 ]
  %79 = getelementptr inbounds i8, ptr %.170103, i64 4
  %80 = load i32, ptr %79, align 4
  %81 = icmp sgt i32 %80, 0
  br i1 %81, label %82, label %89

82:                                               ; preds = %78
  %83 = load ptr, ptr %33, align 8
  %84 = zext nneg i32 %80 to i64
  %85 = getelementptr inbounds i32, ptr %83, i64 %84
  %86 = load i32, ptr %85, align 4
  %87 = icmp eq i32 %86, %2
  br i1 %87, label %88, label %89

88:                                               ; preds = %82
  store i32 0, ptr %79, align 4
  br label %89

89:                                               ; preds = %88, %82, %78
  %90 = getelementptr inbounds i8, ptr %.170103, i64 16
  %.170 = load ptr, ptr %90, align 8
  %.not79 = icmp eq ptr %.170, null
  br i1 %.not79, label %._crit_edge105, label %78

._crit_edge105:                                   ; preds = %89, %.preheader
  %91 = getelementptr inbounds i8, ptr %8, i64 2
  %92 = load i16, ptr %91, align 2
  %93 = and i16 %92, 12
  %94 = load ptr, ptr %4, align 8
  %95 = getelementptr inbounds ptr, ptr %94, i64 %26
  %96 = load ptr, ptr %95, align 8
  %97 = getelementptr inbounds i8, ptr %96, i64 2
  %98 = load i16, ptr %97, align 2
  %99 = or i16 %93, %98
  %100 = or i16 %99, 64
  store i16 %100, ptr %97, align 2
  %101 = load ptr, ptr %0, align 8
  %102 = load ptr, ptr %4, align 8
  %103 = getelementptr inbounds ptr, ptr %102, i64 %26
  %104 = load ptr, ptr %103, align 8
  %105 = getelementptr inbounds i8, ptr %104, i64 40
  %106 = load ptr, ptr %105, align 8
  %107 = getelementptr inbounds i8, ptr %106, i64 8
  %108 = load i32, ptr %107, align 8
  %109 = sdiv i32 %108, 4
  %110 = sext i32 %109 to i64
  %111 = getelementptr inbounds %struct._ir_insn, ptr %101, i64 %110
  %112 = load i8, ptr %111, align 8
  %.not80 = icmp eq i8 %112, 74
  br i1 %.not80, label %117, label %113

113:                                              ; preds = %._crit_edge105
  %114 = getelementptr inbounds i8, ptr %104, i64 2
  %115 = load i16, ptr %114, align 2
  %116 = and i16 %115, -33
  store i16 %116, ptr %114, align 2
  %.pre107 = load ptr, ptr %4, align 8
  br label %117

117:                                              ; preds = %113, %._crit_edge105
  %118 = phi ptr [ %.pre107, %113 ], [ %102, %._crit_edge105 ]
  %119 = getelementptr inbounds ptr, ptr %118, i64 %6
  store ptr null, ptr %119, align 8
  ret void
}